;
; Definition file of fmodstudio.dll
; Automatic generated by gendef
; written by Kai Tietz 2008
;
LIBRARY "fmodstudio.dll"
EXPORTS
; public: static enum FMOD_RESULT __cdecl FMOD::Studio::System::create(class FMOD::Studio::System *__ptr64 *__ptr64,unsigned int)
?create@System@Studio@FMOD@@SA?AW4FMOD_RESULT@@PEAPEAV123@I@Z
; public: enum FMOD_RESULT __cdecl FMOD::Studio::EventDescription::createInstance(class FMOD::Studio::EventInstance *__ptr64 *__ptr64)const __ptr64 
?createInstance@EventDescription@Studio@FMOD@@QEBA?AW4FMOD_RESULT@@PEAPEAVEventInstance@23@@Z
; public: enum FMOD_RESULT __cdecl FMOD::Studio::System::flushCommands(void)__ptr64 
?flushCommands@System@Studio@FMOD@@QEAA?AW4FMOD_RESULT@@XZ
; public: enum FMOD_RESULT __cdecl FMOD::Studio::System::flushSampleLoading(void)__ptr64 
?flushSampleLoading@System@Studio@FMOD@@QEAA?AW4FMOD_RESULT@@XZ
; public: enum FMOD_RESULT __cdecl FMOD::Studio::EventInstance::get3DAttributes(struct FMOD_3D_ATTRIBUTES *__ptr64)const __ptr64 
?get3DAttributes@EventInstance@Studio@FMOD@@QEBA?AW4FMOD_RESULT@@PEAUFMOD_3D_ATTRIBUTES@@@Z
; public: enum FMOD_RESULT __cdecl FMOD::Studio::System::getAdvancedSettings(struct FMOD_STUDIO_ADVANCEDSETTINGS *__ptr64)__ptr64 
?getAdvancedSettings@System@Studio@FMOD@@QEAA?AW4FMOD_RESULT@@PEAUFMOD_STUDIO_ADVANCEDSETTINGS@@@Z
; public: enum FMOD_RESULT __cdecl FMOD::Studio::System::getBank(char const *__ptr64,class FMOD::Studio::Bank *__ptr64 *__ptr64)const __ptr64 
?getBank@System@Studio@FMOD@@QEBA?AW4FMOD_RESULT@@PEBDPEAPEAVBank@23@@Z
; public: enum FMOD_RESULT __cdecl FMOD::Studio::System::getBankByID(struct FMOD_GUID const *__ptr64,class FMOD::Studio::Bank *__ptr64 *__ptr64)const __ptr64 
?getBankByID@System@Studio@FMOD@@QEBA?AW4FMOD_RESULT@@PEBUFMOD_GUID@@PEAPEAVBank@23@@Z
; public: enum FMOD_RESULT __cdecl FMOD::Studio::System::getBankCount(int *__ptr64)const __ptr64 
?getBankCount@System@Studio@FMOD@@QEBA?AW4FMOD_RESULT@@PEAH@Z
; public: enum FMOD_RESULT __cdecl FMOD::Studio::System::getBankList(class FMOD::Studio::Bank *__ptr64 *__ptr64,int,int *__ptr64)const __ptr64 
?getBankList@System@Studio@FMOD@@QEBA?AW4FMOD_RESULT@@PEAPEAVBank@23@HPEAH@Z
; public: enum FMOD_RESULT __cdecl FMOD::Studio::System::getBufferUsage(struct FMOD_STUDIO_BUFFER_USAGE *__ptr64)const __ptr64 
?getBufferUsage@System@Studio@FMOD@@QEBA?AW4FMOD_RESULT@@PEAUFMOD_STUDIO_BUFFER_USAGE@@@Z
; public: enum FMOD_RESULT __cdecl FMOD::Studio::System::getBus(char const *__ptr64,class FMOD::Studio::Bus *__ptr64 *__ptr64)const __ptr64 
?getBus@System@Studio@FMOD@@QEBA?AW4FMOD_RESULT@@PEBDPEAPEAVBus@23@@Z
; public: enum FMOD_RESULT __cdecl FMOD::Studio::System::getBusByID(struct FMOD_GUID const *__ptr64,class FMOD::Studio::Bus *__ptr64 *__ptr64)const __ptr64 
?getBusByID@System@Studio@FMOD@@QEBA?AW4FMOD_RESULT@@PEBUFMOD_GUID@@PEAPEAVBus@23@@Z
; public: enum FMOD_RESULT __cdecl FMOD::Studio::Bank::getBusCount(int *__ptr64)const __ptr64 
?getBusCount@Bank@Studio@FMOD@@QEBA?AW4FMOD_RESULT@@PEAH@Z
; public: enum FMOD_RESULT __cdecl FMOD::Studio::Bank::getBusList(class FMOD::Studio::Bus *__ptr64 *__ptr64,int,int *__ptr64)const __ptr64 
?getBusList@Bank@Studio@FMOD@@QEBA?AW4FMOD_RESULT@@PEAPEAVBus@23@HPEAH@Z
; public: enum FMOD_RESULT __cdecl FMOD::Studio::Bus::getCPUUsage(unsigned int *__ptr64,unsigned int *__ptr64)const __ptr64 
?getCPUUsage@Bus@Studio@FMOD@@QEBA?AW4FMOD_RESULT@@PEAI0@Z
; public: enum FMOD_RESULT __cdecl FMOD::Studio::EventInstance::getCPUUsage(unsigned int *__ptr64,unsigned int *__ptr64)const __ptr64 
?getCPUUsage@EventInstance@Studio@FMOD@@QEBA?AW4FMOD_RESULT@@PEAI0@Z
; public: enum FMOD_RESULT __cdecl FMOD::Studio::System::getCPUUsage(struct FMOD_STUDIO_CPU_USAGE *__ptr64,struct FMOD_CPU_USAGE *__ptr64)const __ptr64 
?getCPUUsage@System@Studio@FMOD@@QEBA?AW4FMOD_RESULT@@PEAUFMOD_STUDIO_CPU_USAGE@@PEAUFMOD_CPU_USAGE@@@Z
; public: enum FMOD_RESULT __cdecl FMOD::Studio::Bus::getChannelGroup(class FMOD::ChannelGroup *__ptr64 *__ptr64)const __ptr64 
?getChannelGroup@Bus@Studio@FMOD@@QEBA?AW4FMOD_RESULT@@PEAPEAVChannelGroup@3@@Z
; public: enum FMOD_RESULT __cdecl FMOD::Studio::EventInstance::getChannelGroup(class FMOD::ChannelGroup *__ptr64 *__ptr64)const __ptr64 
?getChannelGroup@EventInstance@Studio@FMOD@@QEBA?AW4FMOD_RESULT@@PEAPEAVChannelGroup@3@@Z
; public: enum FMOD_RESULT __cdecl FMOD::Studio::CommandReplay::getCommandAtTime(float,int *__ptr64)const __ptr64 
?getCommandAtTime@CommandReplay@Studio@FMOD@@QEBA?AW4FMOD_RESULT@@MPEAH@Z
; public: enum FMOD_RESULT __cdecl FMOD::Studio::CommandReplay::getCommandCount(int *__ptr64)const __ptr64 
?getCommandCount@CommandReplay@Studio@FMOD@@QEBA?AW4FMOD_RESULT@@PEAH@Z
; public: enum FMOD_RESULT __cdecl FMOD::Studio::CommandReplay::getCommandInfo(int,struct FMOD_STUDIO_COMMAND_INFO *__ptr64)const __ptr64 
?getCommandInfo@CommandReplay@Studio@FMOD@@QEBA?AW4FMOD_RESULT@@HPEAUFMOD_STUDIO_COMMAND_INFO@@@Z
; public: enum FMOD_RESULT __cdecl FMOD::Studio::CommandReplay::getCommandString(int,char *__ptr64,int)const __ptr64 
?getCommandString@CommandReplay@Studio@FMOD@@QEBA?AW4FMOD_RESULT@@HPEADH@Z
; public: enum FMOD_RESULT __cdecl FMOD::Studio::System::getCoreSystem(class FMOD::System *__ptr64 *__ptr64)const __ptr64 
?getCoreSystem@System@Studio@FMOD@@QEBA?AW4FMOD_RESULT@@PEAPEAV13@@Z
; public: enum FMOD_RESULT __cdecl FMOD::Studio::CommandReplay::getCurrentCommand(int *__ptr64,float *__ptr64)const __ptr64 
?getCurrentCommand@CommandReplay@Studio@FMOD@@QEBA?AW4FMOD_RESULT@@PEAHPEAM@Z
; public: enum FMOD_RESULT __cdecl FMOD::Studio::EventInstance::getDescription(class FMOD::Studio::EventDescription *__ptr64 *__ptr64)const __ptr64 
?getDescription@EventInstance@Studio@FMOD@@QEBA?AW4FMOD_RESULT@@PEAPEAVEventDescription@23@@Z
; public: enum FMOD_RESULT __cdecl FMOD::Studio::System::getEvent(char const *__ptr64,class FMOD::Studio::EventDescription *__ptr64 *__ptr64)const __ptr64 
?getEvent@System@Studio@FMOD@@QEBA?AW4FMOD_RESULT@@PEBDPEAPEAVEventDescription@23@@Z
; public: enum FMOD_RESULT __cdecl FMOD::Studio::System::getEventByID(struct FMOD_GUID const *__ptr64,class FMOD::Studio::EventDescription *__ptr64 *__ptr64)const __ptr64 
?getEventByID@System@Studio@FMOD@@QEBA?AW4FMOD_RESULT@@PEBUFMOD_GUID@@PEAPEAVEventDescription@23@@Z
; public: enum FMOD_RESULT __cdecl FMOD::Studio::Bank::getEventCount(int *__ptr64)const __ptr64 
?getEventCount@Bank@Studio@FMOD@@QEBA?AW4FMOD_RESULT@@PEAH@Z
; public: enum FMOD_RESULT __cdecl FMOD::Studio::Bank::getEventList(class FMOD::Studio::EventDescription *__ptr64 *__ptr64,int,int *__ptr64)const __ptr64 
?getEventList@Bank@Studio@FMOD@@QEBA?AW4FMOD_RESULT@@PEAPEAVEventDescription@23@HPEAH@Z
; public: enum FMOD_RESULT __cdecl FMOD::Studio::Bank::getID(struct FMOD_GUID *__ptr64)const __ptr64 
?getID@Bank@Studio@FMOD@@QEBA?AW4FMOD_RESULT@@PEAUFMOD_GUID@@@Z
; public: enum FMOD_RESULT __cdecl FMOD::Studio::Bus::getID(struct FMOD_GUID *__ptr64)const __ptr64 
?getID@Bus@Studio@FMOD@@QEBA?AW4FMOD_RESULT@@PEAUFMOD_GUID@@@Z
; public: enum FMOD_RESULT __cdecl FMOD::Studio::EventDescription::getID(struct FMOD_GUID *__ptr64)const __ptr64 
?getID@EventDescription@Studio@FMOD@@QEBA?AW4FMOD_RESULT@@PEAUFMOD_GUID@@@Z
; public: enum FMOD_RESULT __cdecl FMOD::Studio::VCA::getID(struct FMOD_GUID *__ptr64)const __ptr64 
?getID@VCA@Studio@FMOD@@QEBA?AW4FMOD_RESULT@@PEAUFMOD_GUID@@@Z
; public: enum FMOD_RESULT __cdecl FMOD::Studio::EventDescription::getInstanceCount(int *__ptr64)const __ptr64 
?getInstanceCount@EventDescription@Studio@FMOD@@QEBA?AW4FMOD_RESULT@@PEAH@Z
; public: enum FMOD_RESULT __cdecl FMOD::Studio::EventDescription::getInstanceList(class FMOD::Studio::EventInstance *__ptr64 *__ptr64,int,int *__ptr64)const __ptr64 
?getInstanceList@EventDescription@Studio@FMOD@@QEBA?AW4FMOD_RESULT@@PEAPEAVEventInstance@23@HPEAH@Z
; public: enum FMOD_RESULT __cdecl FMOD::Studio::CommandReplay::getLength(float *__ptr64)const __ptr64 
?getLength@CommandReplay@Studio@FMOD@@QEBA?AW4FMOD_RESULT@@PEAM@Z
; public: enum FMOD_RESULT __cdecl FMOD::Studio::EventDescription::getLength(int *__ptr64)const __ptr64 
?getLength@EventDescription@Studio@FMOD@@QEBA?AW4FMOD_RESULT@@PEAH@Z
; public: enum FMOD_RESULT __cdecl FMOD::Studio::System::getListenerAttributes(int,struct FMOD_3D_ATTRIBUTES *__ptr64,struct FMOD_VECTOR *__ptr64)const __ptr64 
?getListenerAttributes@System@Studio@FMOD@@QEBA?AW4FMOD_RESULT@@HPEAUFMOD_3D_ATTRIBUTES@@PEAUFMOD_VECTOR@@@Z
; public: enum FMOD_RESULT __cdecl FMOD::Studio::EventInstance::getListenerMask(unsigned int *__ptr64)const __ptr64 
?getListenerMask@EventInstance@Studio@FMOD@@QEBA?AW4FMOD_RESULT@@PEAI@Z
; public: enum FMOD_RESULT __cdecl FMOD::Studio::System::getListenerWeight(int,float *__ptr64)__ptr64 
?getListenerWeight@System@Studio@FMOD@@QEAA?AW4FMOD_RESULT@@HPEAM@Z
; public: enum FMOD_RESULT __cdecl FMOD::Studio::Bank::getLoadingState(enum FMOD_STUDIO_LOADING_STATE *__ptr64)const __ptr64 
?getLoadingState@Bank@Studio@FMOD@@QEBA?AW4FMOD_RESULT@@PEAW4FMOD_STUDIO_LOADING_STATE@@@Z
; public: enum FMOD_RESULT __cdecl FMOD::Studio::Bus::getMemoryUsage(struct FMOD_STUDIO_MEMORY_USAGE *__ptr64)const __ptr64 
?getMemoryUsage@Bus@Studio@FMOD@@QEBA?AW4FMOD_RESULT@@PEAUFMOD_STUDIO_MEMORY_USAGE@@@Z
; public: enum FMOD_RESULT __cdecl FMOD::Studio::EventInstance::getMemoryUsage(struct FMOD_STUDIO_MEMORY_USAGE *__ptr64)const __ptr64 
?getMemoryUsage@EventInstance@Studio@FMOD@@QEBA?AW4FMOD_RESULT@@PEAUFMOD_STUDIO_MEMORY_USAGE@@@Z
; public: enum FMOD_RESULT __cdecl FMOD::Studio::System::getMemoryUsage(struct FMOD_STUDIO_MEMORY_USAGE *__ptr64)const __ptr64 
?getMemoryUsage@System@Studio@FMOD@@QEBA?AW4FMOD_RESULT@@PEAUFMOD_STUDIO_MEMORY_USAGE@@@Z
; public: enum FMOD_RESULT __cdecl FMOD::Studio::EventDescription::getMinMaxDistance(float *__ptr64,float *__ptr64)const __ptr64 
?getMinMaxDistance@EventDescription@Studio@FMOD@@QEBA?AW4FMOD_RESULT@@PEAM0@Z
; public: enum FMOD_RESULT __cdecl FMOD::Studio::EventInstance::getMinMaxDistance(float *__ptr64,float *__ptr64)const __ptr64 
?getMinMaxDistance@EventInstance@Studio@FMOD@@QEBA?AW4FMOD_RESULT@@PEAM0@Z
; public: enum FMOD_RESULT __cdecl FMOD::Studio::Bus::getMute(bool *__ptr64)const __ptr64 
?getMute@Bus@Studio@FMOD@@QEBA?AW4FMOD_RESULT@@PEA_N@Z
; public: enum FMOD_RESULT __cdecl FMOD::Studio::System::getNumListeners(int *__ptr64)__ptr64 
?getNumListeners@System@Studio@FMOD@@QEAA?AW4FMOD_RESULT@@PEAH@Z
; public: enum FMOD_RESULT __cdecl FMOD::Studio::EventInstance::getParameterByID(struct FMOD_STUDIO_PARAMETER_ID,float *__ptr64,float *__ptr64)const __ptr64 
?getParameterByID@EventInstance@Studio@FMOD@@QEBA?AW4FMOD_RESULT@@UFMOD_STUDIO_PARAMETER_ID@@PEAM1@Z
; public: enum FMOD_RESULT __cdecl FMOD::Studio::System::getParameterByID(struct FMOD_STUDIO_PARAMETER_ID,float *__ptr64,float *__ptr64)const __ptr64 
?getParameterByID@System@Studio@FMOD@@QEBA?AW4FMOD_RESULT@@UFMOD_STUDIO_PARAMETER_ID@@PEAM1@Z
; public: enum FMOD_RESULT __cdecl FMOD::Studio::EventInstance::getParameterByName(char const *__ptr64,float *__ptr64,float *__ptr64)const __ptr64 
?getParameterByName@EventInstance@Studio@FMOD@@QEBA?AW4FMOD_RESULT@@PEBDPEAM1@Z
; public: enum FMOD_RESULT __cdecl FMOD::Studio::System::getParameterByName(char const *__ptr64,float *__ptr64,float *__ptr64)const __ptr64 
?getParameterByName@System@Studio@FMOD@@QEBA?AW4FMOD_RESULT@@PEBDPEAM1@Z
; public: enum FMOD_RESULT __cdecl FMOD::Studio::EventDescription::getParameterDescriptionByID(struct FMOD_STUDIO_PARAMETER_ID,struct FMOD_STUDIO_PARAMETER_DESCRIPTION *__ptr64)const __ptr64 
?getParameterDescriptionByID@EventDescription@Studio@FMOD@@QEBA?AW4FMOD_RESULT@@UFMOD_STUDIO_PARAMETER_ID@@PEAUFMOD_STUDIO_PARAMETER_DESCRIPTION@@@Z
; public: enum FMOD_RESULT __cdecl FMOD::Studio::System::getParameterDescriptionByID(struct FMOD_STUDIO_PARAMETER_ID,struct FMOD_STUDIO_PARAMETER_DESCRIPTION *__ptr64)const __ptr64 
?getParameterDescriptionByID@System@Studio@FMOD@@QEBA?AW4FMOD_RESULT@@UFMOD_STUDIO_PARAMETER_ID@@PEAUFMOD_STUDIO_PARAMETER_DESCRIPTION@@@Z
; public: enum FMOD_RESULT __cdecl FMOD::Studio::EventDescription::getParameterDescriptionByIndex(int,struct FMOD_STUDIO_PARAMETER_DESCRIPTION *__ptr64)const __ptr64 
?getParameterDescriptionByIndex@EventDescription@Studio@FMOD@@QEBA?AW4FMOD_RESULT@@HPEAUFMOD_STUDIO_PARAMETER_DESCRIPTION@@@Z
; public: enum FMOD_RESULT __cdecl FMOD::Studio::EventDescription::getParameterDescriptionByName(char const *__ptr64,struct FMOD_STUDIO_PARAMETER_DESCRIPTION *__ptr64)const __ptr64 
?getParameterDescriptionByName@EventDescription@Studio@FMOD@@QEBA?AW4FMOD_RESULT@@PEBDPEAUFMOD_STUDIO_PARAMETER_DESCRIPTION@@@Z
; public: enum FMOD_RESULT __cdecl FMOD::Studio::System::getParameterDescriptionByName(char const *__ptr64,struct FMOD_STUDIO_PARAMETER_DESCRIPTION *__ptr64)const __ptr64 
?getParameterDescriptionByName@System@Studio@FMOD@@QEBA?AW4FMOD_RESULT@@PEBDPEAUFMOD_STUDIO_PARAMETER_DESCRIPTION@@@Z
; public: enum FMOD_RESULT __cdecl FMOD::Studio::EventDescription::getParameterDescriptionCount(int *__ptr64)const __ptr64 
?getParameterDescriptionCount@EventDescription@Studio@FMOD@@QEBA?AW4FMOD_RESULT@@PEAH@Z
; public: enum FMOD_RESULT __cdecl FMOD::Studio::System::getParameterDescriptionCount(int *__ptr64)const __ptr64 
?getParameterDescriptionCount@System@Studio@FMOD@@QEBA?AW4FMOD_RESULT@@PEAH@Z
; public: enum FMOD_RESULT __cdecl FMOD::Studio::System::getParameterDescriptionList(struct FMOD_STUDIO_PARAMETER_DESCRIPTION *__ptr64,int,int *__ptr64)const __ptr64 
?getParameterDescriptionList@System@Studio@FMOD@@QEBA?AW4FMOD_RESULT@@PEAUFMOD_STUDIO_PARAMETER_DESCRIPTION@@HPEAH@Z
; public: enum FMOD_RESULT __cdecl FMOD::Studio::EventDescription::getParameterLabelByID(struct FMOD_STUDIO_PARAMETER_ID,int,char *__ptr64,int,int *__ptr64)const __ptr64 
?getParameterLabelByID@EventDescription@Studio@FMOD@@QEBA?AW4FMOD_RESULT@@UFMOD_STUDIO_PARAMETER_ID@@HPEADHPEAH@Z
; public: enum FMOD_RESULT __cdecl FMOD::Studio::System::getParameterLabelByID(struct FMOD_STUDIO_PARAMETER_ID,int,char *__ptr64,int,int *__ptr64)const __ptr64 
?getParameterLabelByID@System@Studio@FMOD@@QEBA?AW4FMOD_RESULT@@UFMOD_STUDIO_PARAMETER_ID@@HPEADHPEAH@Z
; public: enum FMOD_RESULT __cdecl FMOD::Studio::EventDescription::getParameterLabelByIndex(int,int,char *__ptr64,int,int *__ptr64)const __ptr64 
?getParameterLabelByIndex@EventDescription@Studio@FMOD@@QEBA?AW4FMOD_RESULT@@HHPEADHPEAH@Z
; public: enum FMOD_RESULT __cdecl FMOD::Studio::EventDescription::getParameterLabelByName(char const *__ptr64,int,char *__ptr64,int,int *__ptr64)const __ptr64 
?getParameterLabelByName@EventDescription@Studio@FMOD@@QEBA?AW4FMOD_RESULT@@PEBDHPEADHPEAH@Z
; public: enum FMOD_RESULT __cdecl FMOD::Studio::System::getParameterLabelByName(char const *__ptr64,int,char *__ptr64,int,int *__ptr64)const __ptr64 
?getParameterLabelByName@System@Studio@FMOD@@QEBA?AW4FMOD_RESULT@@PEBDHPEADHPEAH@Z
; public: enum FMOD_RESULT __cdecl FMOD::Studio::Bank::getPath(char *__ptr64,int,int *__ptr64)const __ptr64 
?getPath@Bank@Studio@FMOD@@QEBA?AW4FMOD_RESULT@@PEADHPEAH@Z
; public: enum FMOD_RESULT __cdecl FMOD::Studio::Bus::getPath(char *__ptr64,int,int *__ptr64)const __ptr64 
?getPath@Bus@Studio@FMOD@@QEBA?AW4FMOD_RESULT@@PEADHPEAH@Z
; public: enum FMOD_RESULT __cdecl FMOD::Studio::EventDescription::getPath(char *__ptr64,int,int *__ptr64)const __ptr64 
?getPath@EventDescription@Studio@FMOD@@QEBA?AW4FMOD_RESULT@@PEADHPEAH@Z
; public: enum FMOD_RESULT __cdecl FMOD::Studio::VCA::getPath(char *__ptr64,int,int *__ptr64)const __ptr64 
?getPath@VCA@Studio@FMOD@@QEBA?AW4FMOD_RESULT@@PEADHPEAH@Z
; public: enum FMOD_RESULT __cdecl FMOD::Studio::Bus::getPaused(bool *__ptr64)const __ptr64 
?getPaused@Bus@Studio@FMOD@@QEBA?AW4FMOD_RESULT@@PEA_N@Z
; public: enum FMOD_RESULT __cdecl FMOD::Studio::CommandReplay::getPaused(bool *__ptr64)const __ptr64 
?getPaused@CommandReplay@Studio@FMOD@@QEBA?AW4FMOD_RESULT@@PEA_N@Z
; public: enum FMOD_RESULT __cdecl FMOD::Studio::EventInstance::getPaused(bool *__ptr64)const __ptr64 
?getPaused@EventInstance@Studio@FMOD@@QEBA?AW4FMOD_RESULT@@PEA_N@Z
; public: enum FMOD_RESULT __cdecl FMOD::Studio::EventInstance::getPitch(float *__ptr64,float *__ptr64)const __ptr64 
?getPitch@EventInstance@Studio@FMOD@@QEBA?AW4FMOD_RESULT@@PEAM0@Z
; public: enum FMOD_RESULT __cdecl FMOD::Studio::CommandReplay::getPlaybackState(enum FMOD_STUDIO_PLAYBACK_STATE *__ptr64)const __ptr64 
?getPlaybackState@CommandReplay@Studio@FMOD@@QEBA?AW4FMOD_RESULT@@PEAW4FMOD_STUDIO_PLAYBACK_STATE@@@Z
; public: enum FMOD_RESULT __cdecl FMOD::Studio::EventInstance::getPlaybackState(enum FMOD_STUDIO_PLAYBACK_STATE *__ptr64)const __ptr64 
?getPlaybackState@EventInstance@Studio@FMOD@@QEBA?AW4FMOD_RESULT@@PEAW4FMOD_STUDIO_PLAYBACK_STATE@@@Z
; public: enum FMOD_RESULT __cdecl FMOD::Studio::Bus::getPortIndex(unsigned __int64 *__ptr64)const __ptr64 
?getPortIndex@Bus@Studio@FMOD@@QEBA?AW4FMOD_RESULT@@PEA_K@Z
; public: enum FMOD_RESULT __cdecl FMOD::Studio::EventInstance::getProperty(enum FMOD_STUDIO_EVENT_PROPERTY,float *__ptr64)const __ptr64 
?getProperty@EventInstance@Studio@FMOD@@QEBA?AW4FMOD_RESULT@@W4FMOD_STUDIO_EVENT_PROPERTY@@PEAM@Z
; public: enum FMOD_RESULT __cdecl FMOD::Studio::EventInstance::getReverbLevel(int,float *__ptr64)const __ptr64 
?getReverbLevel@EventInstance@Studio@FMOD@@QEBA?AW4FMOD_RESULT@@HPEAM@Z
; public: enum FMOD_RESULT __cdecl FMOD::Studio::Bank::getSampleLoadingState(enum FMOD_STUDIO_LOADING_STATE *__ptr64)const __ptr64 
?getSampleLoadingState@Bank@Studio@FMOD@@QEBA?AW4FMOD_RESULT@@PEAW4FMOD_STUDIO_LOADING_STATE@@@Z
; public: enum FMOD_RESULT __cdecl FMOD::Studio::EventDescription::getSampleLoadingState(enum FMOD_STUDIO_LOADING_STATE *__ptr64)const __ptr64 
?getSampleLoadingState@EventDescription@Studio@FMOD@@QEBA?AW4FMOD_RESULT@@PEAW4FMOD_STUDIO_LOADING_STATE@@@Z
; public: enum FMOD_RESULT __cdecl FMOD::Studio::System::getSoundInfo(char const *__ptr64,struct FMOD_STUDIO_SOUND_INFO *__ptr64)const __ptr64 
?getSoundInfo@System@Studio@FMOD@@QEBA?AW4FMOD_RESULT@@PEBDPEAUFMOD_STUDIO_SOUND_INFO@@@Z
; public: enum FMOD_RESULT __cdecl FMOD::Studio::EventDescription::getSoundSize(float *__ptr64)const __ptr64 
?getSoundSize@EventDescription@Studio@FMOD@@QEBA?AW4FMOD_RESULT@@PEAM@Z
; public: enum FMOD_RESULT __cdecl FMOD::Studio::Bank::getStringCount(int *__ptr64)const __ptr64 
?getStringCount@Bank@Studio@FMOD@@QEBA?AW4FMOD_RESULT@@PEAH@Z
; public: enum FMOD_RESULT __cdecl FMOD::Studio::Bank::getStringInfo(int,struct FMOD_GUID *__ptr64,char *__ptr64,int,int *__ptr64)const __ptr64 
?getStringInfo@Bank@Studio@FMOD@@QEBA?AW4FMOD_RESULT@@HPEAUFMOD_GUID@@PEADHPEAH@Z
; public: enum FMOD_RESULT __cdecl FMOD::Studio::CommandReplay::getSystem(class FMOD::Studio::System *__ptr64 *__ptr64)const __ptr64 
?getSystem@CommandReplay@Studio@FMOD@@QEBA?AW4FMOD_RESULT@@PEAPEAVSystem@23@@Z
; public: enum FMOD_RESULT __cdecl FMOD::Studio::EventInstance::getSystem(class FMOD::Studio::System *__ptr64 *__ptr64)const __ptr64 
?getSystem@EventInstance@Studio@FMOD@@QEBA?AW4FMOD_RESULT@@PEAPEAVSystem@23@@Z
; public: enum FMOD_RESULT __cdecl FMOD::Studio::EventInstance::getTimelinePosition(int *__ptr64)const __ptr64 
?getTimelinePosition@EventInstance@Studio@FMOD@@QEBA?AW4FMOD_RESULT@@PEAH@Z
; public: enum FMOD_RESULT __cdecl FMOD::Studio::Bank::getUserData(void *__ptr64 *__ptr64)const __ptr64 
?getUserData@Bank@Studio@FMOD@@QEBA?AW4FMOD_RESULT@@PEAPEAX@Z
; public: enum FMOD_RESULT __cdecl FMOD::Studio::CommandReplay::getUserData(void *__ptr64 *__ptr64)const __ptr64 
?getUserData@CommandReplay@Studio@FMOD@@QEBA?AW4FMOD_RESULT@@PEAPEAX@Z
; public: enum FMOD_RESULT __cdecl FMOD::Studio::EventDescription::getUserData(void *__ptr64 *__ptr64)const __ptr64 
?getUserData@EventDescription@Studio@FMOD@@QEBA?AW4FMOD_RESULT@@PEAPEAX@Z
; public: enum FMOD_RESULT __cdecl FMOD::Studio::EventInstance::getUserData(void *__ptr64 *__ptr64)const __ptr64 
?getUserData@EventInstance@Studio@FMOD@@QEBA?AW4FMOD_RESULT@@PEAPEAX@Z
; public: enum FMOD_RESULT __cdecl FMOD::Studio::System::getUserData(void *__ptr64 *__ptr64)const __ptr64 
?getUserData@System@Studio@FMOD@@QEBA?AW4FMOD_RESULT@@PEAPEAX@Z
; public: enum FMOD_RESULT __cdecl FMOD::Studio::EventDescription::getUserProperty(char const *__ptr64,struct FMOD_STUDIO_USER_PROPERTY *__ptr64)const __ptr64 
?getUserProperty@EventDescription@Studio@FMOD@@QEBA?AW4FMOD_RESULT@@PEBDPEAUFMOD_STUDIO_USER_PROPERTY@@@Z
; public: enum FMOD_RESULT __cdecl FMOD::Studio::EventDescription::getUserPropertyByIndex(int,struct FMOD_STUDIO_USER_PROPERTY *__ptr64)const __ptr64 
?getUserPropertyByIndex@EventDescription@Studio@FMOD@@QEBA?AW4FMOD_RESULT@@HPEAUFMOD_STUDIO_USER_PROPERTY@@@Z
; public: enum FMOD_RESULT __cdecl FMOD::Studio::EventDescription::getUserPropertyCount(int *__ptr64)const __ptr64 
?getUserPropertyCount@EventDescription@Studio@FMOD@@QEBA?AW4FMOD_RESULT@@PEAH@Z
; public: enum FMOD_RESULT __cdecl FMOD::Studio::System::getVCA(char const *__ptr64,class FMOD::Studio::VCA *__ptr64 *__ptr64)const __ptr64 
?getVCA@System@Studio@FMOD@@QEBA?AW4FMOD_RESULT@@PEBDPEAPEAVVCA@23@@Z
; public: enum FMOD_RESULT __cdecl FMOD::Studio::System::getVCAByID(struct FMOD_GUID const *__ptr64,class FMOD::Studio::VCA *__ptr64 *__ptr64)const __ptr64 
?getVCAByID@System@Studio@FMOD@@QEBA?AW4FMOD_RESULT@@PEBUFMOD_GUID@@PEAPEAVVCA@23@@Z
; public: enum FMOD_RESULT __cdecl FMOD::Studio::Bank::getVCACount(int *__ptr64)const __ptr64 
?getVCACount@Bank@Studio@FMOD@@QEBA?AW4FMOD_RESULT@@PEAH@Z
; public: enum FMOD_RESULT __cdecl FMOD::Studio::Bank::getVCAList(class FMOD::Studio::VCA *__ptr64 *__ptr64,int,int *__ptr64)const __ptr64 
?getVCAList@Bank@Studio@FMOD@@QEBA?AW4FMOD_RESULT@@PEAPEAVVCA@23@HPEAH@Z
; public: enum FMOD_RESULT __cdecl FMOD::Studio::Bus::getVolume(float *__ptr64,float *__ptr64)const __ptr64 
?getVolume@Bus@Studio@FMOD@@QEBA?AW4FMOD_RESULT@@PEAM0@Z
; public: enum FMOD_RESULT __cdecl FMOD::Studio::EventInstance::getVolume(float *__ptr64,float *__ptr64)const __ptr64 
?getVolume@EventInstance@Studio@FMOD@@QEBA?AW4FMOD_RESULT@@PEAM0@Z
; public: enum FMOD_RESULT __cdecl FMOD::Studio::VCA::getVolume(float *__ptr64,float *__ptr64)const __ptr64 
?getVolume@VCA@Studio@FMOD@@QEBA?AW4FMOD_RESULT@@PEAM0@Z
; public: enum FMOD_RESULT __cdecl FMOD::Studio::EventDescription::hasSustainPoint(bool *__ptr64)const __ptr64 
?hasSustainPoint@EventDescription@Studio@FMOD@@QEBA?AW4FMOD_RESULT@@PEA_N@Z
; public: enum FMOD_RESULT __cdecl FMOD::Studio::System::initialize(int,unsigned int,unsigned int,void *__ptr64)__ptr64 
?initialize@System@Studio@FMOD@@QEAA?AW4FMOD_RESULT@@HIIPEAX@Z
; public: enum FMOD_RESULT __cdecl FMOD::Studio::EventDescription::is3D(bool *__ptr64)const __ptr64 
?is3D@EventDescription@Studio@FMOD@@QEBA?AW4FMOD_RESULT@@PEA_N@Z
; public: enum FMOD_RESULT __cdecl FMOD::Studio::EventDescription::isDopplerEnabled(bool *__ptr64)const __ptr64 
?isDopplerEnabled@EventDescription@Studio@FMOD@@QEBA?AW4FMOD_RESULT@@PEA_N@Z
; public: enum FMOD_RESULT __cdecl FMOD::Studio::EventDescription::isOneshot(bool *__ptr64)const __ptr64 
?isOneshot@EventDescription@Studio@FMOD@@QEBA?AW4FMOD_RESULT@@PEA_N@Z
; public: enum FMOD_RESULT __cdecl FMOD::Studio::EventDescription::isSnapshot(bool *__ptr64)const __ptr64 
?isSnapshot@EventDescription@Studio@FMOD@@QEBA?AW4FMOD_RESULT@@PEA_N@Z
; public: enum FMOD_RESULT __cdecl FMOD::Studio::EventDescription::isStream(bool *__ptr64)const __ptr64 
?isStream@EventDescription@Studio@FMOD@@QEBA?AW4FMOD_RESULT@@PEA_N@Z
; public: bool __cdecl FMOD::Studio::Bank::isValid(void)const __ptr64 
?isValid@Bank@Studio@FMOD@@QEBA_NXZ
; public: bool __cdecl FMOD::Studio::Bus::isValid(void)const __ptr64 
?isValid@Bus@Studio@FMOD@@QEBA_NXZ
; public: bool __cdecl FMOD::Studio::CommandReplay::isValid(void)const __ptr64 
?isValid@CommandReplay@Studio@FMOD@@QEBA_NXZ
; public: bool __cdecl FMOD::Studio::EventDescription::isValid(void)const __ptr64 
?isValid@EventDescription@Studio@FMOD@@QEBA_NXZ
; public: bool __cdecl FMOD::Studio::EventInstance::isValid(void)const __ptr64 
?isValid@EventInstance@Studio@FMOD@@QEBA_NXZ
; public: bool __cdecl FMOD::Studio::System::isValid(void)const __ptr64 
?isValid@System@Studio@FMOD@@QEBA_NXZ
; public: bool __cdecl FMOD::Studio::VCA::isValid(void)const __ptr64 
?isValid@VCA@Studio@FMOD@@QEBA_NXZ
; public: enum FMOD_RESULT __cdecl FMOD::Studio::EventInstance::isVirtual(bool *__ptr64)const __ptr64 
?isVirtual@EventInstance@Studio@FMOD@@QEBA?AW4FMOD_RESULT@@PEA_N@Z
; public: enum FMOD_RESULT __cdecl FMOD::Studio::EventInstance::keyOff(void)__ptr64 
?keyOff@EventInstance@Studio@FMOD@@QEAA?AW4FMOD_RESULT@@XZ
; public: enum FMOD_RESULT __cdecl FMOD::Studio::System::loadBankCustom(struct FMOD_STUDIO_BANK_INFO const *__ptr64,unsigned int,class FMOD::Studio::Bank *__ptr64 *__ptr64)__ptr64 
?loadBankCustom@System@Studio@FMOD@@QEAA?AW4FMOD_RESULT@@PEBUFMOD_STUDIO_BANK_INFO@@IPEAPEAVBank@23@@Z
; public: enum FMOD_RESULT __cdecl FMOD::Studio::System::loadBankFile(char const *__ptr64,unsigned int,class FMOD::Studio::Bank *__ptr64 *__ptr64)__ptr64 
?loadBankFile@System@Studio@FMOD@@QEAA?AW4FMOD_RESULT@@PEBDIPEAPEAVBank@23@@Z
; public: enum FMOD_RESULT __cdecl FMOD::Studio::System::loadBankMemory(char const *__ptr64,int,enum FMOD_STUDIO_LOAD_MEMORY_MODE,unsigned int,class FMOD::Studio::Bank *__ptr64 *__ptr64)__ptr64 
?loadBankMemory@System@Studio@FMOD@@QEAA?AW4FMOD_RESULT@@PEBDHW4FMOD_STUDIO_LOAD_MEMORY_MODE@@IPEAPEAVBank@23@@Z
; public: enum FMOD_RESULT __cdecl FMOD::Studio::System::loadCommandReplay(char const *__ptr64,unsigned int,class FMOD::Studio::CommandReplay *__ptr64 *__ptr64)__ptr64 
?loadCommandReplay@System@Studio@FMOD@@QEAA?AW4FMOD_RESULT@@PEBDIPEAPEAVCommandReplay@23@@Z
; public: enum FMOD_RESULT __cdecl FMOD::Studio::Bank::loadSampleData(void)__ptr64 
?loadSampleData@Bank@Studio@FMOD@@QEAA?AW4FMOD_RESULT@@XZ
; public: enum FMOD_RESULT __cdecl FMOD::Studio::EventDescription::loadSampleData(void)__ptr64 
?loadSampleData@EventDescription@Studio@FMOD@@QEAA?AW4FMOD_RESULT@@XZ
; public: enum FMOD_RESULT __cdecl FMOD::Studio::Bus::lockChannelGroup(void)__ptr64 
?lockChannelGroup@Bus@Studio@FMOD@@QEAA?AW4FMOD_RESULT@@XZ
; public: enum FMOD_RESULT __cdecl FMOD::Studio::System::lookupID(char const *__ptr64,struct FMOD_GUID *__ptr64)const __ptr64 
?lookupID@System@Studio@FMOD@@QEBA?AW4FMOD_RESULT@@PEBDPEAUFMOD_GUID@@@Z
; public: enum FMOD_RESULT __cdecl FMOD::Studio::System::lookupPath(struct FMOD_GUID const *__ptr64,char *__ptr64,int,int *__ptr64)const __ptr64 
?lookupPath@System@Studio@FMOD@@QEBA?AW4FMOD_RESULT@@PEBUFMOD_GUID@@PEADHPEAH@Z
; public: enum FMOD_RESULT __cdecl FMOD::Studio::System::registerPlugin(struct FMOD_DSP_DESCRIPTION const *__ptr64)__ptr64 
?registerPlugin@System@Studio@FMOD@@QEAA?AW4FMOD_RESULT@@PEBUFMOD_DSP_DESCRIPTION@@@Z
; public: enum FMOD_RESULT __cdecl FMOD::Studio::CommandReplay::release(void)__ptr64 
?release@CommandReplay@Studio@FMOD@@QEAA?AW4FMOD_RESULT@@XZ
; public: enum FMOD_RESULT __cdecl FMOD::Studio::EventInstance::release(void)__ptr64 
?release@EventInstance@Studio@FMOD@@QEAA?AW4FMOD_RESULT@@XZ
; public: enum FMOD_RESULT __cdecl FMOD::Studio::System::release(void)__ptr64 
?release@System@Studio@FMOD@@QEAA?AW4FMOD_RESULT@@XZ
; public: enum FMOD_RESULT __cdecl FMOD::Studio::EventDescription::releaseAllInstances(void)__ptr64 
?releaseAllInstances@EventDescription@Studio@FMOD@@QEAA?AW4FMOD_RESULT@@XZ
; public: enum FMOD_RESULT __cdecl FMOD::Studio::System::resetBufferUsage(void)__ptr64 
?resetBufferUsage@System@Studio@FMOD@@QEAA?AW4FMOD_RESULT@@XZ
; public: enum FMOD_RESULT __cdecl FMOD::Studio::CommandReplay::seekToCommand(int)__ptr64 
?seekToCommand@CommandReplay@Studio@FMOD@@QEAA?AW4FMOD_RESULT@@H@Z
; public: enum FMOD_RESULT __cdecl FMOD::Studio::CommandReplay::seekToTime(float)__ptr64 
?seekToTime@CommandReplay@Studio@FMOD@@QEAA?AW4FMOD_RESULT@@M@Z
; public: enum FMOD_RESULT __cdecl FMOD::Studio::EventInstance::set3DAttributes(struct FMOD_3D_ATTRIBUTES const *__ptr64)__ptr64 
?set3DAttributes@EventInstance@Studio@FMOD@@QEAA?AW4FMOD_RESULT@@PEBUFMOD_3D_ATTRIBUTES@@@Z
; public: enum FMOD_RESULT __cdecl FMOD::Studio::System::setAdvancedSettings(struct FMOD_STUDIO_ADVANCEDSETTINGS *__ptr64)__ptr64 
?setAdvancedSettings@System@Studio@FMOD@@QEAA?AW4FMOD_RESULT@@PEAUFMOD_STUDIO_ADVANCEDSETTINGS@@@Z
; public: enum FMOD_RESULT __cdecl FMOD::Studio::CommandReplay::setBankPath(char const *__ptr64)__ptr64 
?setBankPath@CommandReplay@Studio@FMOD@@QEAA?AW4FMOD_RESULT@@PEBD@Z
; public: enum FMOD_RESULT __cdecl FMOD::Studio::EventDescription::setCallback(enum FMOD_RESULT(__cdecl *)(unsigned int,struct FMOD_STUDIO_EVENTINSTANCE *__ptr64,void *__ptr64),unsigned int)__ptr64 
?setCallback@EventDescription@Studio@FMOD@@QEAA?AW4FMOD_RESULT@@P6A?AW44@IPEAUFMOD_STUDIO_EVENTINSTANCE@@PEAX@ZI@Z
; public: enum FMOD_RESULT __cdecl FMOD::Studio::EventInstance::setCallback(enum FMOD_RESULT(__cdecl *)(unsigned int,struct FMOD_STUDIO_EVENTINSTANCE *__ptr64,void *__ptr64),unsigned int)__ptr64 
?setCallback@EventInstance@Studio@FMOD@@QEAA?AW4FMOD_RESULT@@P6A?AW44@IPEAUFMOD_STUDIO_EVENTINSTANCE@@PEAX@ZI@Z
; public: enum FMOD_RESULT __cdecl FMOD::Studio::System::setCallback(enum FMOD_RESULT(__cdecl *)(struct FMOD_STUDIO_SYSTEM *__ptr64,unsigned int,void *__ptr64,void *__ptr64),unsigned int)__ptr64 
?setCallback@System@Studio@FMOD@@QEAA?AW4FMOD_RESULT@@P6A?AW44@PEAUFMOD_STUDIO_SYSTEM@@IPEAX1@ZI@Z
; public: enum FMOD_RESULT __cdecl FMOD::Studio::CommandReplay::setCreateInstanceCallback(enum FMOD_RESULT(__cdecl *)(struct FMOD_STUDIO_COMMANDREPLAY *__ptr64,int,struct FMOD_STUDIO_EVENTDESCRIPTION *__ptr64,struct FMOD_STUDIO_EVENTINSTANCE *__ptr64 *__ptr64,void *__ptr64))__ptr64 
?setCreateInstanceCallback@CommandReplay@Studio@FMOD@@QEAA?AW4FMOD_RESULT@@P6A?AW44@PEAUFMOD_STUDIO_COMMANDREPLAY@@HPEAUFMOD_STUDIO_EVENTDESCRIPTION@@PEAPEAUFMOD_STUDIO_EVENTINSTANCE@@PEAX@Z@Z
; public: enum FMOD_RESULT __cdecl FMOD::Studio::CommandReplay::setFrameCallback(enum FMOD_RESULT(__cdecl *)(struct FMOD_STUDIO_COMMANDREPLAY *__ptr64,int,float,void *__ptr64))__ptr64 
?setFrameCallback@CommandReplay@Studio@FMOD@@QEAA?AW4FMOD_RESULT@@P6A?AW44@PEAUFMOD_STUDIO_COMMANDREPLAY@@HMPEAX@Z@Z
; public: enum FMOD_RESULT __cdecl FMOD::Studio::System::setListenerAttributes(int,struct FMOD_3D_ATTRIBUTES const *__ptr64,struct FMOD_VECTOR const *__ptr64)__ptr64 
?setListenerAttributes@System@Studio@FMOD@@QEAA?AW4FMOD_RESULT@@HPEBUFMOD_3D_ATTRIBUTES@@PEBUFMOD_VECTOR@@@Z
; public: enum FMOD_RESULT __cdecl FMOD::Studio::EventInstance::setListenerMask(unsigned int)__ptr64 
?setListenerMask@EventInstance@Studio@FMOD@@QEAA?AW4FMOD_RESULT@@I@Z
; public: enum FMOD_RESULT __cdecl FMOD::Studio::System::setListenerWeight(int,float)__ptr64 
?setListenerWeight@System@Studio@FMOD@@QEAA?AW4FMOD_RESULT@@HM@Z
; public: enum FMOD_RESULT __cdecl FMOD::Studio::CommandReplay::setLoadBankCallback(enum FMOD_RESULT(__cdecl *)(struct FMOD_STUDIO_COMMANDREPLAY *__ptr64,int,struct FMOD_GUID const *__ptr64,char const *__ptr64,unsigned int,struct FMOD_STUDIO_BANK *__ptr64 *__ptr64,void *__ptr64))__ptr64 
?setLoadBankCallback@CommandReplay@Studio@FMOD@@QEAA?AW4FMOD_RESULT@@P6A?AW44@PEAUFMOD_STUDIO_COMMANDREPLAY@@HPEBUFMOD_GUID@@PEBDIPEAPEAUFMOD_STUDIO_BANK@@PEAX@Z@Z
; public: enum FMOD_RESULT __cdecl FMOD::Studio::Bus::setMute(bool)__ptr64 
?setMute@Bus@Studio@FMOD@@QEAA?AW4FMOD_RESULT@@_N@Z
; public: enum FMOD_RESULT __cdecl FMOD::Studio::System::setNumListeners(int)__ptr64 
?setNumListeners@System@Studio@FMOD@@QEAA?AW4FMOD_RESULT@@H@Z
; public: enum FMOD_RESULT __cdecl FMOD::Studio::EventInstance::setParameterByID(struct FMOD_STUDIO_PARAMETER_ID,float,bool)__ptr64 
?setParameterByID@EventInstance@Studio@FMOD@@QEAA?AW4FMOD_RESULT@@UFMOD_STUDIO_PARAMETER_ID@@M_N@Z
; public: enum FMOD_RESULT __cdecl FMOD::Studio::System::setParameterByID(struct FMOD_STUDIO_PARAMETER_ID,float,bool)__ptr64 
?setParameterByID@System@Studio@FMOD@@QEAA?AW4FMOD_RESULT@@UFMOD_STUDIO_PARAMETER_ID@@M_N@Z
; public: enum FMOD_RESULT __cdecl FMOD::Studio::EventInstance::setParameterByIDWithLabel(struct FMOD_STUDIO_PARAMETER_ID,char const *__ptr64,bool)__ptr64 
?setParameterByIDWithLabel@EventInstance@Studio@FMOD@@QEAA?AW4FMOD_RESULT@@UFMOD_STUDIO_PARAMETER_ID@@PEBD_N@Z
; public: enum FMOD_RESULT __cdecl FMOD::Studio::System::setParameterByIDWithLabel(struct FMOD_STUDIO_PARAMETER_ID,char const *__ptr64,bool)__ptr64 
?setParameterByIDWithLabel@System@Studio@FMOD@@QEAA?AW4FMOD_RESULT@@UFMOD_STUDIO_PARAMETER_ID@@PEBD_N@Z
; public: enum FMOD_RESULT __cdecl FMOD::Studio::EventInstance::setParameterByName(char const *__ptr64,float,bool)__ptr64 
?setParameterByName@EventInstance@Studio@FMOD@@QEAA?AW4FMOD_RESULT@@PEBDM_N@Z
; public: enum FMOD_RESULT __cdecl FMOD::Studio::System::setParameterByName(char const *__ptr64,float,bool)__ptr64 
?setParameterByName@System@Studio@FMOD@@QEAA?AW4FMOD_RESULT@@PEBDM_N@Z
; public: enum FMOD_RESULT __cdecl FMOD::Studio::EventInstance::setParameterByNameWithLabel(char const *__ptr64,char const *__ptr64,bool)__ptr64 
?setParameterByNameWithLabel@EventInstance@Studio@FMOD@@QEAA?AW4FMOD_RESULT@@PEBD0_N@Z
; public: enum FMOD_RESULT __cdecl FMOD::Studio::System::setParameterByNameWithLabel(char const *__ptr64,char const *__ptr64,bool)__ptr64 
?setParameterByNameWithLabel@System@Studio@FMOD@@QEAA?AW4FMOD_RESULT@@PEBD0_N@Z
; public: enum FMOD_RESULT __cdecl FMOD::Studio::EventInstance::setParametersByIDs(struct FMOD_STUDIO_PARAMETER_ID const *__ptr64,float *__ptr64,int,bool)__ptr64 
?setParametersByIDs@EventInstance@Studio@FMOD@@QEAA?AW4FMOD_RESULT@@PEBUFMOD_STUDIO_PARAMETER_ID@@PEAMH_N@Z
; public: enum FMOD_RESULT __cdecl FMOD::Studio::System::setParametersByIDs(struct FMOD_STUDIO_PARAMETER_ID const *__ptr64,float *__ptr64,int,bool)__ptr64 
?setParametersByIDs@System@Studio@FMOD@@QEAA?AW4FMOD_RESULT@@PEBUFMOD_STUDIO_PARAMETER_ID@@PEAMH_N@Z
; public: enum FMOD_RESULT __cdecl FMOD::Studio::Bus::setPaused(bool)__ptr64 
?setPaused@Bus@Studio@FMOD@@QEAA?AW4FMOD_RESULT@@_N@Z
; public: enum FMOD_RESULT __cdecl FMOD::Studio::CommandReplay::setPaused(bool)__ptr64 
?setPaused@CommandReplay@Studio@FMOD@@QEAA?AW4FMOD_RESULT@@_N@Z
; public: enum FMOD_RESULT __cdecl FMOD::Studio::EventInstance::setPaused(bool)__ptr64 
?setPaused@EventInstance@Studio@FMOD@@QEAA?AW4FMOD_RESULT@@_N@Z
; public: enum FMOD_RESULT __cdecl FMOD::Studio::EventInstance::setPitch(float)__ptr64 
?setPitch@EventInstance@Studio@FMOD@@QEAA?AW4FMOD_RESULT@@M@Z
; public: enum FMOD_RESULT __cdecl FMOD::Studio::Bus::setPortIndex(unsigned __int64)__ptr64 
?setPortIndex@Bus@Studio@FMOD@@QEAA?AW4FMOD_RESULT@@_K@Z
; public: enum FMOD_RESULT __cdecl FMOD::Studio::EventInstance::setProperty(enum FMOD_STUDIO_EVENT_PROPERTY,float)__ptr64 
?setProperty@EventInstance@Studio@FMOD@@QEAA?AW4FMOD_RESULT@@W4FMOD_STUDIO_EVENT_PROPERTY@@M@Z
; public: enum FMOD_RESULT __cdecl FMOD::Studio::EventInstance::setReverbLevel(int,float)__ptr64 
?setReverbLevel@EventInstance@Studio@FMOD@@QEAA?AW4FMOD_RESULT@@HM@Z
; public: enum FMOD_RESULT __cdecl FMOD::Studio::EventInstance::setTimelinePosition(int)__ptr64 
?setTimelinePosition@EventInstance@Studio@FMOD@@QEAA?AW4FMOD_RESULT@@H@Z
; public: enum FMOD_RESULT __cdecl FMOD::Studio::Bank::setUserData(void *__ptr64)__ptr64 
?setUserData@Bank@Studio@FMOD@@QEAA?AW4FMOD_RESULT@@PEAX@Z
; public: enum FMOD_RESULT __cdecl FMOD::Studio::CommandReplay::setUserData(void *__ptr64)__ptr64 
?setUserData@CommandReplay@Studio@FMOD@@QEAA?AW4FMOD_RESULT@@PEAX@Z
; public: enum FMOD_RESULT __cdecl FMOD::Studio::EventDescription::setUserData(void *__ptr64)__ptr64 
?setUserData@EventDescription@Studio@FMOD@@QEAA?AW4FMOD_RESULT@@PEAX@Z
; public: enum FMOD_RESULT __cdecl FMOD::Studio::EventInstance::setUserData(void *__ptr64)__ptr64 
?setUserData@EventInstance@Studio@FMOD@@QEAA?AW4FMOD_RESULT@@PEAX@Z
; public: enum FMOD_RESULT __cdecl FMOD::Studio::System::setUserData(void *__ptr64)__ptr64 
?setUserData@System@Studio@FMOD@@QEAA?AW4FMOD_RESULT@@PEAX@Z
; public: enum FMOD_RESULT __cdecl FMOD::Studio::Bus::setVolume(float)__ptr64 
?setVolume@Bus@Studio@FMOD@@QEAA?AW4FMOD_RESULT@@M@Z
; public: enum FMOD_RESULT __cdecl FMOD::Studio::EventInstance::setVolume(float)__ptr64 
?setVolume@EventInstance@Studio@FMOD@@QEAA?AW4FMOD_RESULT@@M@Z
; public: enum FMOD_RESULT __cdecl FMOD::Studio::VCA::setVolume(float)__ptr64 
?setVolume@VCA@Studio@FMOD@@QEAA?AW4FMOD_RESULT@@M@Z
; public: enum FMOD_RESULT __cdecl FMOD::Studio::CommandReplay::start(void)__ptr64 
?start@CommandReplay@Studio@FMOD@@QEAA?AW4FMOD_RESULT@@XZ
; public: enum FMOD_RESULT __cdecl FMOD::Studio::EventInstance::start(void)__ptr64 
?start@EventInstance@Studio@FMOD@@QEAA?AW4FMOD_RESULT@@XZ
; public: enum FMOD_RESULT __cdecl FMOD::Studio::System::startCommandCapture(char const *__ptr64,unsigned int)__ptr64 
?startCommandCapture@System@Studio@FMOD@@QEAA?AW4FMOD_RESULT@@PEBDI@Z
; public: enum FMOD_RESULT __cdecl FMOD::Studio::CommandReplay::stop(void)__ptr64 
?stop@CommandReplay@Studio@FMOD@@QEAA?AW4FMOD_RESULT@@XZ
; public: enum FMOD_RESULT __cdecl FMOD::Studio::EventInstance::stop(enum FMOD_STUDIO_STOP_MODE)__ptr64 
?stop@EventInstance@Studio@FMOD@@QEAA?AW4FMOD_RESULT@@W4FMOD_STUDIO_STOP_MODE@@@Z
; public: enum FMOD_RESULT __cdecl FMOD::Studio::Bus::stopAllEvents(enum FMOD_STUDIO_STOP_MODE)__ptr64 
?stopAllEvents@Bus@Studio@FMOD@@QEAA?AW4FMOD_RESULT@@W4FMOD_STUDIO_STOP_MODE@@@Z
; public: enum FMOD_RESULT __cdecl FMOD::Studio::System::stopCommandCapture(void)__ptr64 
?stopCommandCapture@System@Studio@FMOD@@QEAA?AW4FMOD_RESULT@@XZ
; public: enum FMOD_RESULT __cdecl FMOD::Studio::Bank::unload(void)__ptr64 
?unload@Bank@Studio@FMOD@@QEAA?AW4FMOD_RESULT@@XZ
; public: enum FMOD_RESULT __cdecl FMOD::Studio::System::unloadAll(void)__ptr64 
?unloadAll@System@Studio@FMOD@@QEAA?AW4FMOD_RESULT@@XZ
; public: enum FMOD_RESULT __cdecl FMOD::Studio::Bank::unloadSampleData(void)__ptr64 
?unloadSampleData@Bank@Studio@FMOD@@QEAA?AW4FMOD_RESULT@@XZ
; public: enum FMOD_RESULT __cdecl FMOD::Studio::EventDescription::unloadSampleData(void)__ptr64 
?unloadSampleData@EventDescription@Studio@FMOD@@QEAA?AW4FMOD_RESULT@@XZ
; public: enum FMOD_RESULT __cdecl FMOD::Studio::Bus::unlockChannelGroup(void)__ptr64 
?unlockChannelGroup@Bus@Studio@FMOD@@QEAA?AW4FMOD_RESULT@@XZ
; public: enum FMOD_RESULT __cdecl FMOD::Studio::System::unregisterPlugin(char const *__ptr64)__ptr64 
?unregisterPlugin@System@Studio@FMOD@@QEAA?AW4FMOD_RESULT@@PEBD@Z
; public: enum FMOD_RESULT __cdecl FMOD::Studio::System::update(void)__ptr64 
?update@System@Studio@FMOD@@QEAA?AW4FMOD_RESULT@@XZ
FMOD_OS_CriticalSection_Create
FMOD_OS_CriticalSection_Enter
FMOD_OS_CriticalSection_Free
FMOD_OS_CriticalSection_IsLocked
FMOD_OS_CriticalSection_Leave
FMOD_OS_CriticalSection_TryEnter
FMOD_OS_Debug_Output
FMOD_OS_File_Close
FMOD_OS_File_Open
FMOD_OS_File_Read
FMOD_OS_File_Seek
FMOD_OS_File_Write
FMOD_OS_Thread_Create
FMOD_OS_Thread_Destroy
FMOD_OS_Time_GetUs
FMOD_OS_Time_Sleep
FMOD_Studio_Bank_GetBusCount
FMOD_Studio_Bank_GetBusList
FMOD_Studio_Bank_GetEventCount
FMOD_Studio_Bank_GetEventList
FMOD_Studio_Bank_GetID
FMOD_Studio_Bank_GetLoadingState
FMOD_Studio_Bank_GetPath
FMOD_Studio_Bank_GetSampleLoadingState
FMOD_Studio_Bank_GetStringCount
FMOD_Studio_Bank_GetStringInfo
FMOD_Studio_Bank_GetUserData
FMOD_Studio_Bank_GetVCACount
FMOD_Studio_Bank_GetVCAList
FMOD_Studio_Bank_IsValid
FMOD_Studio_Bank_LoadSampleData
FMOD_Studio_Bank_SetUserData
FMOD_Studio_Bank_Unload
FMOD_Studio_Bank_UnloadSampleData
FMOD_Studio_Bus_GetCPUUsage
FMOD_Studio_Bus_GetChannelGroup
FMOD_Studio_Bus_GetID
FMOD_Studio_Bus_GetMemoryUsage
FMOD_Studio_Bus_GetMute
FMOD_Studio_Bus_GetPath
FMOD_Studio_Bus_GetPaused
FMOD_Studio_Bus_GetPortIndex
FMOD_Studio_Bus_GetVolume
FMOD_Studio_Bus_IsValid
FMOD_Studio_Bus_LockChannelGroup
FMOD_Studio_Bus_SetMute
FMOD_Studio_Bus_SetPaused
FMOD_Studio_Bus_SetPortIndex
FMOD_Studio_Bus_SetVolume
FMOD_Studio_Bus_StopAllEvents
FMOD_Studio_Bus_UnlockChannelGroup
FMOD_Studio_CommandReplay_GetCommandAtTime
FMOD_Studio_CommandReplay_GetCommandCount
FMOD_Studio_CommandReplay_GetCommandInfo
FMOD_Studio_CommandReplay_GetCommandString
FMOD_Studio_CommandReplay_GetCurrentCommand
FMOD_Studio_CommandReplay_GetLength
FMOD_Studio_CommandReplay_GetPaused
FMOD_Studio_CommandReplay_GetPlaybackState
FMOD_Studio_CommandReplay_GetSystem
FMOD_Studio_CommandReplay_GetUserData
FMOD_Studio_CommandReplay_IsValid
FMOD_Studio_CommandReplay_Release
FMOD_Studio_CommandReplay_SeekToCommand
FMOD_Studio_CommandReplay_SeekToTime
FMOD_Studio_CommandReplay_SetBankPath
FMOD_Studio_CommandReplay_SetCreateInstanceCallback
FMOD_Studio_CommandReplay_SetFrameCallback
FMOD_Studio_CommandReplay_SetLoadBankCallback
FMOD_Studio_CommandReplay_SetPaused
FMOD_Studio_CommandReplay_SetUserData
FMOD_Studio_CommandReplay_Start
FMOD_Studio_CommandReplay_Stop
FMOD_Studio_EventDescription_CreateInstance
FMOD_Studio_EventDescription_GetID
FMOD_Studio_EventDescription_GetInstanceCount
FMOD_Studio_EventDescription_GetInstanceList
FMOD_Studio_EventDescription_GetLength
FMOD_Studio_EventDescription_GetMinMaxDistance
FMOD_Studio_EventDescription_GetParameterDescriptionByID
FMOD_Studio_EventDescription_GetParameterDescriptionByIndex
FMOD_Studio_EventDescription_GetParameterDescriptionByName
FMOD_Studio_EventDescription_GetParameterDescriptionCount
FMOD_Studio_EventDescription_GetParameterLabelByID
FMOD_Studio_EventDescription_GetParameterLabelByIndex
FMOD_Studio_EventDescription_GetParameterLabelByName
FMOD_Studio_EventDescription_GetPath
FMOD_Studio_EventDescription_GetSampleLoadingState
FMOD_Studio_EventDescription_GetSoundSize
FMOD_Studio_EventDescription_GetUserData
FMOD_Studio_EventDescription_GetUserProperty
FMOD_Studio_EventDescription_GetUserPropertyByIndex
FMOD_Studio_EventDescription_GetUserPropertyCount
FMOD_Studio_EventDescription_HasSustainPoint
FMOD_Studio_EventDescription_Is3D
FMOD_Studio_EventDescription_IsDopplerEnabled
FMOD_Studio_EventDescription_IsOneshot
FMOD_Studio_EventDescription_IsSnapshot
FMOD_Studio_EventDescription_IsStream
FMOD_Studio_EventDescription_IsValid
FMOD_Studio_EventDescription_LoadSampleData
FMOD_Studio_EventDescription_ReleaseAllInstances
FMOD_Studio_EventDescription_SetCallback
FMOD_Studio_EventDescription_SetUserData
FMOD_Studio_EventDescription_UnloadSampleData
FMOD_Studio_EventInstance_Get3DAttributes
FMOD_Studio_EventInstance_GetCPUUsage
FMOD_Studio_EventInstance_GetChannelGroup
FMOD_Studio_EventInstance_GetDescription
FMOD_Studio_EventInstance_GetListenerMask
FMOD_Studio_EventInstance_GetMemoryUsage
FMOD_Studio_EventInstance_GetMinMaxDistance
FMOD_Studio_EventInstance_GetParameterByID
FMOD_Studio_EventInstance_GetParameterByName
FMOD_Studio_EventInstance_GetPaused
FMOD_Studio_EventInstance_GetPitch
FMOD_Studio_EventInstance_GetPlaybackState
FMOD_Studio_EventInstance_GetProperty
FMOD_Studio_EventInstance_GetReverbLevel
FMOD_Studio_EventInstance_GetSystem
FMOD_Studio_EventInstance_GetTimelinePosition
FMOD_Studio_EventInstance_GetUserData
FMOD_Studio_EventInstance_GetVolume
FMOD_Studio_EventInstance_IsValid
FMOD_Studio_EventInstance_IsVirtual
FMOD_Studio_EventInstance_KeyOff
FMOD_Studio_EventInstance_Release
FMOD_Studio_EventInstance_Set3DAttributes
FMOD_Studio_EventInstance_SetCallback
FMOD_Studio_EventInstance_SetListenerMask
FMOD_Studio_EventInstance_SetParameterByID
FMOD_Studio_EventInstance_SetParameterByIDWithLabel
FMOD_Studio_EventInstance_SetParameterByName
FMOD_Studio_EventInstance_SetParameterByNameWithLabel
FMOD_Studio_EventInstance_SetParametersByIDs
FMOD_Studio_EventInstance_SetPaused
FMOD_Studio_EventInstance_SetPitch
FMOD_Studio_EventInstance_SetProperty
FMOD_Studio_EventInstance_SetReverbLevel
FMOD_Studio_EventInstance_SetTimelinePosition
FMOD_Studio_EventInstance_SetUserData
FMOD_Studio_EventInstance_SetVolume
FMOD_Studio_EventInstance_Start
FMOD_Studio_EventInstance_Stop
FMOD_Studio_ParseID
FMOD_Studio_System_Create
FMOD_Studio_System_FlushCommands
FMOD_Studio_System_FlushSampleLoading
FMOD_Studio_System_GetAdvancedSettings
FMOD_Studio_System_GetBank
FMOD_Studio_System_GetBankByID
FMOD_Studio_System_GetBankCount
FMOD_Studio_System_GetBankList
FMOD_Studio_System_GetBufferUsage
FMOD_Studio_System_GetBus
FMOD_Studio_System_GetBusByID
FMOD_Studio_System_GetCPUUsage
FMOD_Studio_System_GetCoreSystem
FMOD_Studio_System_GetEvent
FMOD_Studio_System_GetEventByID
FMOD_Studio_System_GetListenerAttributes
FMOD_Studio_System_GetListenerWeight
FMOD_Studio_System_GetMemoryUsage
FMOD_Studio_System_GetNumListeners
FMOD_Studio_System_GetParameterByID
FMOD_Studio_System_GetParameterByName
FMOD_Studio_System_GetParameterDescriptionByID
FMOD_Studio_System_GetParameterDescriptionByName
FMOD_Studio_System_GetParameterDescriptionCount
FMOD_Studio_System_GetParameterDescriptionList
FMOD_Studio_System_GetParameterLabelByID
FMOD_Studio_System_GetParameterLabelByName
FMOD_Studio_System_GetSoundInfo
FMOD_Studio_System_GetUserData
FMOD_Studio_System_GetVCA
FMOD_Studio_System_GetVCAByID
FMOD_Studio_System_Initialize
FMOD_Studio_System_IsValid
FMOD_Studio_System_LoadBankCustom
FMOD_Studio_System_LoadBankFile
FMOD_Studio_System_LoadBankMemory
FMOD_Studio_System_LoadCommandReplay
FMOD_Studio_System_LookupID
FMOD_Studio_System_LookupPath
FMOD_Studio_System_RegisterPlugin
FMOD_Studio_System_Release
FMOD_Studio_System_ResetBufferUsage
FMOD_Studio_System_SetAdvancedSettings
FMOD_Studio_System_SetCallback
FMOD_Studio_System_SetListenerAttributes
FMOD_Studio_System_SetListenerWeight
FMOD_Studio_System_SetNumListeners
FMOD_Studio_System_SetParameterByID
FMOD_Studio_System_SetParameterByIDWithLabel
FMOD_Studio_System_SetParameterByName
FMOD_Studio_System_SetParameterByNameWithLabel
FMOD_Studio_System_SetParametersByIDs
FMOD_Studio_System_SetUserData
FMOD_Studio_System_StartCommandCapture
FMOD_Studio_System_StopCommandCapture
FMOD_Studio_System_UnloadAll
FMOD_Studio_System_UnregisterPlugin
FMOD_Studio_System_Update
FMOD_Studio_VCA_GetID
FMOD_Studio_VCA_GetPath
FMOD_Studio_VCA_GetVolume
FMOD_Studio_VCA_IsValid
FMOD_Studio_VCA_SetVolume
